target datalayout = "e-m:e-p270:32:32-p271:32:32-p272:64:64-i64:64-i128:128-f80:128-n8:16:32:64-S128"
target triple = "x86_64-pc-linux-gnu"

%struct.AVFormatContext = type { ptr, ptr, ptr, ptr, ptr, i32, i32, ptr, i32, ptr, i32, ptr, ptr, i64, i64, i64, i32, i32, i32, i64, i64, ptr, i32, i32, ptr, i32, i32, i32, i32, ptr, i64, i32, i32, %struct.AVIOInterruptCB, i32, i32, i32, i32, i64, i32, i32, i32, i32, i32, i32, i32, i32, i32, i32, i32, i32, i64, i32, i32, i32, i32, i32, ptr, ptr, ptr, ptr, i32, ptr, ptr, ptr, ptr, i32, ptr, ptr, i64, ptr, ptr, ptr, i64 }
%struct.AVIOInterruptCB = type { ptr, ptr }
%struct.AVStream = type { ptr, i32, i32, ptr, ptr, %struct.AVRational, i64, i64, i64, i32, i32, %struct.AVRational, ptr, %struct.AVRational, %struct.AVPacket, i32, %struct.AVRational, i32 }
%struct.AVPacket = type { ptr, i64, i64, ptr, i32, i32, i32, ptr, i32, i64, i64, ptr, ptr, %struct.AVRational }
%struct.AVRational = type { i32, i32 }

; Function Attrs: alwaysinline nounwind uwtable
define internal i64 @avio_tell(ptr noundef %0) #4 {
  %2 = alloca ptr, align 8
  store ptr %0, ptr %2, align 8, !tbaa !31
  %3 = load ptr, ptr %2, align 8, !tbaa !31
  %4 = call i64 @avio_seek(ptr noundef %3, i64 noundef 0, i32 noundef 1)
  ret i64 %4
}

; Function Attrs: nounwind uwtable
define internal i32 @binka_read_packet(ptr noundef %0, ptr noundef %1) #0 {
  %3 = alloca i32, align 4
  %4 = alloca ptr, align 8
  %5 = alloca ptr, align 8
  %6 = alloca ptr, align 8
  %7 = alloca ptr, align 8
  %8 = alloca i64, align 8
  %9 = alloca i32, align 4
  %10 = alloca i32, align 4
  %11 = alloca i32, align 4
  store ptr %0, ptr %4, align 8, !tbaa !14
  store ptr %1, ptr %5, align 8, !tbaa !49
  call void @llvm.lifetime.start.p0(i64 8, ptr %6) #6
  %12 = load ptr, ptr %4, align 8, !tbaa !14
  %13 = getelementptr inbounds nuw %struct.AVFormatContext, ptr %12, i32 0, i32 4
  %14 = load ptr, ptr %13, align 8, !tbaa !16
  store ptr %14, ptr %6, align 8, !tbaa !31
  call void @llvm.lifetime.start.p0(i64 8, ptr %7) #6
  %15 = load ptr, ptr %4, align 8, !tbaa !14
  %16 = getelementptr inbounds nuw %struct.AVFormatContext, ptr %15, i32 0, i32 7
  %17 = load ptr, ptr %16, align 8, !tbaa !51
  %18 = getelementptr inbounds ptr, ptr %17, i64 0
  %19 = load ptr, ptr %18, align 8, !tbaa !32
  store ptr %19, ptr %7, align 8, !tbaa !32
  call void @llvm.lifetime.start.p0(i64 8, ptr %8) #6
  call void @llvm.lifetime.start.p0(i64 4, ptr %9) #6
  call void @llvm.lifetime.start.p0(i64 4, ptr %10) #6
  %20 = load ptr, ptr %6, align 8, !tbaa !31
  %21 = call i32 @avio_feof(ptr noundef %20)
  %22 = icmp ne i32 %21, 0
  br i1 %22, label %23, label %24

23:                                               ; preds = %2
  store i32 -541478725, ptr %3, align 4
  store i32 1, ptr %11, align 4
  br label %68

24:                                               ; preds = %2
  %25 = load ptr, ptr %6, align 8, !tbaa !31
  %26 = call i64 @avio_tell(ptr noundef %25)
  store i64 %26, ptr %8, align 8, !tbaa !52
  %27 = load ptr, ptr %6, align 8, !tbaa !31
  %28 = call i64 @avio_skip(ptr noundef %27, i64 noundef 2)
  %29 = load ptr, ptr %6, align 8, !tbaa !31
  %30 = call i32 @avio_rl16(ptr noundef %29)
  %31 = add i32 %30, 4
  store i32 %31, ptr %9, align 4, !tbaa !48
  %32 = load i32, ptr %9, align 4, !tbaa !48
  %33 = icmp sle i32 %32, 4
  br i1 %33, label %34, label %35

34:                                               ; preds = %24
  store i32 -5, ptr %3, align 4
  store i32 1, ptr %11, align 4
  br label %68

35:                                               ; preds = %24
  %36 = load ptr, ptr %5, align 8, !tbaa !49
  %37 = load i32, ptr %9, align 4, !tbaa !48
  %38 = call i32 @av_new_packet(ptr noundef %36, i32 noundef %37)
  store i32 %38, ptr %10, align 4, !tbaa !48
  %39 = load i32, ptr %10, align 4, !tbaa !48
  %40 = icmp slt i32 %39, 0
  br i1 %40, label %41, label %43

41:                                               ; preds = %35
  %42 = load i32, ptr %10, align 4, !tbaa !48
  store i32 %42, ptr %3, align 4
  store i32 1, ptr %11, align 4
  br label %68

43:                                               ; preds = %35
  %44 = load ptr, ptr %6, align 8, !tbaa !31
  %45 = load ptr, ptr %5, align 8, !tbaa !49
  %46 = getelementptr inbounds nuw %struct.AVPacket, ptr %45, i32 0, i32 3
  %47 = load ptr, ptr %46, align 8, !tbaa !53
  %48 = getelementptr inbounds i8, ptr %47, i64 4
  %49 = load i32, ptr %9, align 4, !tbaa !48
  %50 = sub nsw i32 %49, 4
  %51 = call i32 @avio_read(ptr noundef %44, ptr noundef %48, i32 noundef %50)
  %52 = load i32, ptr %9, align 4, !tbaa !48
  %53 = load ptr, ptr %5, align 8, !tbaa !49
  %54 = getelementptr inbounds nuw %struct.AVPacket, ptr %53, i32 0, i32 3
  %55 = load ptr, ptr %54, align 8, !tbaa !53
  store i32 %52, ptr %55, align 1, !tbaa !13
  %56 = load i64, ptr %8, align 8, !tbaa !52
  %57 = load ptr, ptr %5, align 8, !tbaa !49
  %58 = getelementptr inbounds nuw %struct.AVPacket, ptr %57, i32 0, i32 10
  store i64 %56, ptr %58, align 8, !tbaa !54
  %59 = load ptr, ptr %5, align 8, !tbaa !49
  %60 = getelementptr inbounds nuw %struct.AVPacket, ptr %59, i32 0, i32 5
  store i32 0, ptr %60, align 4, !tbaa !55
  %61 = load ptr, ptr %7, align 8, !tbaa !32
  %62 = getelementptr inbounds nuw %struct.AVStream, ptr %61, i32 0, i32 3
  %63 = load ptr, ptr %62, align 8, !tbaa !34
  %64 = call i32 @av_get_audio_frame_duration2(ptr noundef %63, i32 noundef 0)
  %65 = sext i32 %64 to i64
  %66 = load ptr, ptr %5, align 8, !tbaa !49
  %67 = getelementptr inbounds nuw %struct.AVPacket, ptr %66, i32 0, i32 9
  store i64 %65, ptr %67, align 8, !tbaa !56
  store i32 0, ptr %3, align 4
  store i32 1, ptr %11, align 4
  br label %68

68:                                               ; preds = %43, %41, %34, %23
  call void @llvm.lifetime.end.p0(i64 4, ptr %10) #6
  call void @llvm.lifetime.end.p0(i64 4, ptr %9) #6
  call void @llvm.lifetime.end.p0(i64 8, ptr %8) #6
  call void @llvm.lifetime.end.p0(i64 8, ptr %7) #6
  call void @llvm.lifetime.end.p0(i64 8, ptr %6) #6
  %69 = load i32, ptr %3, align 4
  ret i32 %69
}