; Function Attrs: nounwind uwtable
define internal range(i32 -2147483648, 1) i32 @binka_read_packet(ptr noundef readonly captures(none) %0, ptr noundef %1) #1 {
  %3 = getelementptr inbounds nuw i8, ptr %0, i64 32
  %4 = load ptr, ptr %3, align 8, !tbaa !12
  %5 = getelementptr inbounds nuw i8, ptr %0, i64 48
  %6 = load ptr, ptr %5, align 8, !tbaa !41
  %7 = load ptr, ptr %6, align 8, !tbaa !42
  %8 = tail call i32 @avio_feof(ptr noundef %4) #3
  %.not = icmp eq i32 %8, 0
  br i1 %.not, label %9, label %31

9:                                                ; preds = %2
  %10 = tail call i64 @avio_seek(ptr noundef %4, i64 noundef 0, i32 noundef 1) #3
  %11 = tail call i64 @avio_skip(ptr noundef %4, i64 noundef 2) #3
  %12 = tail call i32 @avio_rl16(ptr noundef %4) #3
  %13 = add i32 %12, 4
  %14 = icmp slt i32 %13, 5
  br i1 %14, label %31, label %15

15:                                               ; preds = %9
  %16 = tail call i32 @av_new_packet(ptr noundef %1, i32 noundef %13) #3
  %17 = icmp slt i32 %16, 0
  br i1 %17, label %31, label %18

18:                                               ; preds = %15
  %19 = getelementptr inbounds nuw i8, ptr %1, i64 24
  %20 = load ptr, ptr %19, align 8, !tbaa !44
  %21 = getelementptr inbounds nuw i8, ptr %20, i64 4
  %22 = tail call i32 @avio_read(ptr noundef %4, ptr noundef nonnull %21, i32 noundef %12) #3
  %23 = load ptr, ptr %19, align 8, !tbaa !44
  store i32 %13, ptr %23, align 1, !tbaa !11
  %24 = getelementptr inbounds nuw i8, ptr %1, i64 72
  store i64 %10, ptr %24, align 8, !tbaa !45
  %25 = getelementptr inbounds nuw i8, ptr %1, i64 36
  store i32 0, ptr %25, align 4, !tbaa !46
  %26 = getelementptr inbounds nuw i8, ptr %7, i64 16
  %27 = load ptr, ptr %26, align 8, !tbaa !27
  %28 = tail call i32 @av_get_audio_frame_duration2(ptr noundef %27, i32 noundef 0) #3
  %29 = sext i32 %28 to i64
  %30 = getelementptr inbounds nuw i8, ptr %1, i64 64
  store i64 %29, ptr %30, align 8, !tbaa !47
  br label %31

31:                                               ; preds = %15, %9, %2, %18
  %.0 = phi i32 [ 0, %18 ], [ -541478725, %2 ], [ -5, %9 ], [ %16, %15 ]
  ret i32 %.0
}